target datalayout = "e-m:e-p270:32:32-p271:32:32-p272:64:64-i64:64-i128:128-f80:128-n8:16:32:64-S128"
target triple = "x86_64-pc-linux-gnu"

%"struct.duckdb::LogicalType" = type { i8, i8, %"class.duckdb::shared_ptr" }
%"class.duckdb::shared_ptr" = type { %"class.std::shared_ptr" }
%"class.std::shared_ptr" = type { %"class.std::__shared_ptr" }
%"class.std::__shared_ptr" = type { ptr, %"class.std::__shared_count" }
%"class.std::__shared_count" = type { ptr }
%"struct.duckdb::ListBindData" = type { %"struct.duckdb::FunctionData", %"struct.duckdb::LogicalType", %"struct.duckdb::ListSegmentFunctions" }
%"struct.duckdb::FunctionData" = type { ptr }
%"struct.duckdb::ListSegmentFunctions" = type { ptr, ptr, ptr, i16, %"class.duckdb::vector.13" }
%"class.duckdb::vector.13" = type { %"class.std::vector.14" }
%"class.std::vector.14" = type { %"struct.std::_Vector_base.15" }
%"struct.std::_Vector_base.15" = type { %"struct.std::_Vector_base<duckdb::ListSegmentFunctions, std::allocator<duckdb::ListSegmentFunctions>>::_Vector_impl" }
%"struct.std::_Vector_base<duckdb::ListSegmentFunctions, std::allocator<duckdb::ListSegmentFunctions>>::_Vector_impl" = type { %"struct.std::_Vector_base<duckdb::ListSegmentFunctions, std::allocator<duckdb::ListSegmentFunctions>>::_Vector_impl_data" }
%"struct.std::_Vector_base<duckdb::ListSegmentFunctions, std::allocator<duckdb::ListSegmentFunctions>>::_Vector_impl_data" = type { ptr, ptr, ptr }

@_ZTVN6duckdb12FunctionDataE = available_externally unnamed_addr constant { [6 x ptr] } { [6 x ptr] [ptr null, ptr @_ZTIN6duckdb12FunctionDataE, ptr @_ZN6duckdb12FunctionDataD1Ev, ptr @_ZN6duckdb12FunctionDataD0Ev, ptr @__cxa_pure_virtual, ptr @__cxa_pure_virtual] }, align 8

; Function Attrs: mustprogress nounwind uwtable
define linkonce_odr void @_ZNSt15__new_allocatorIN6duckdb20ListSegmentFunctionsEEC2Ev(ptr noundef nonnull align 1 dereferenceable(1) %0) unnamed_addr #6 comdat align 2 {
  %2 = alloca ptr, align 8
  store ptr %0, ptr %2, align 8, !tbaa !362
  ret void
}

; Function Attrs: mustprogress nounwind uwtable
define linkonce_odr void @_ZNSt12_Vector_baseIN6duckdb20ListSegmentFunctionsESaIS1_EE17_Vector_impl_dataC2Ev(ptr noundef nonnull align 8 dereferenceable(24) %0) unnamed_addr #6 comdat align 2 {
  %2 = alloca ptr, align 8
  store ptr %0, ptr %2, align 8, !tbaa !357
  %3 = load ptr, ptr %2, align 8
  %4 = getelementptr inbounds nuw %"struct.std::_Vector_base<duckdb::ListSegmentFunctions, std::allocator<duckdb::ListSegmentFunctions>>::_Vector_impl_data", ptr %3, i32 0, i32 0
  store ptr null, ptr %4, align 8, !tbaa !359
  %5 = getelementptr inbounds nuw %"struct.std::_Vector_base<duckdb::ListSegmentFunctions, std::allocator<duckdb::ListSegmentFunctions>>::_Vector_impl_data", ptr %3, i32 0, i32 1
  store ptr null, ptr %5, align 8, !tbaa !360
  %6 = getelementptr inbounds nuw %"struct.std::_Vector_base<duckdb::ListSegmentFunctions, std::allocator<duckdb::ListSegmentFunctions>>::_Vector_impl_data", ptr %3, i32 0, i32 2
  store ptr null, ptr %6, align 8, !tbaa !361
  ret void
}

; Function Attrs: mustprogress nounwind uwtable
define linkonce_odr void @_ZNSaIN6duckdb20ListSegmentFunctionsEEC2Ev(ptr noundef nonnull align 1 dereferenceable(1) %0) unnamed_addr #6 comdat align 2 {
  %2 = alloca ptr, align 8
  store ptr %0, ptr %2, align 8, !tbaa !355
  %3 = load ptr, ptr %2, align 8
  call void @_ZNSt15__new_allocatorIN6duckdb20ListSegmentFunctionsEEC2Ev(ptr noundef nonnull align 1 dereferenceable(1) %3) #3
  ret void
}

; Function Attrs: mustprogress nounwind uwtable
define linkonce_odr void @_ZNSt12_Vector_baseIN6duckdb20ListSegmentFunctionsESaIS1_EE12_Vector_implC2Ev(ptr noundef nonnull align 8 dereferenceable(24) %0) unnamed_addr #6 comdat align 2 {
  %2 = alloca ptr, align 8
  store ptr %0, ptr %2, align 8, !tbaa !353
  %3 = load ptr, ptr %2, align 8
  call void @_ZNSaIN6duckdb20ListSegmentFunctionsEEC2Ev(ptr noundef nonnull align 1 dereferenceable(1) %3) #3
  call void @_ZNSt12_Vector_baseIN6duckdb20ListSegmentFunctionsESaIS1_EE17_Vector_impl_dataC2Ev(ptr noundef nonnull align 8 dereferenceable(24) %3) #3
  ret void
}

; Function Attrs: mustprogress nounwind uwtable
define linkonce_odr void @_ZNSt12_Vector_baseIN6duckdb20ListSegmentFunctionsESaIS1_EEC2Ev(ptr noundef nonnull align 8 dereferenceable(24) %0) unnamed_addr #6 comdat align 2 {
  %2 = alloca ptr, align 8
  store ptr %0, ptr %2, align 8, !tbaa !351
  %3 = load ptr, ptr %2, align 8
  %4 = getelementptr inbounds nuw %"struct.std::_Vector_base.15", ptr %3, i32 0, i32 0
  call void @_ZNSt12_Vector_baseIN6duckdb20ListSegmentFunctionsESaIS1_EE12_Vector_implC2Ev(ptr noundef nonnull align 8 dereferenceable(24) %4) #3
  ret void
}

; Function Attrs: mustprogress nounwind uwtable
define linkonce_odr void @_ZNSt6vectorIN6duckdb20ListSegmentFunctionsESaIS1_EEC2Ev(ptr noundef nonnull align 8 dereferenceable(24) %0) unnamed_addr #6 comdat align 2 {
  %2 = alloca ptr, align 8
  store ptr %0, ptr %2, align 8, !tbaa !349
  %3 = load ptr, ptr %2, align 8
  call void @_ZNSt12_Vector_baseIN6duckdb20ListSegmentFunctionsESaIS1_EEC2Ev(ptr noundef nonnull align 8 dereferenceable(24) %3) #3
  ret void
}

; Function Attrs: mustprogress nounwind uwtable
define linkonce_odr void @_ZN6duckdb6vectorINS_20ListSegmentFunctionsELb1EEC2Ev(ptr noundef nonnull align 8 dereferenceable(24) %0) unnamed_addr #6 comdat align 2 {
  %2 = alloca ptr, align 8
  store ptr %0, ptr %2, align 8, !tbaa !347
  %3 = load ptr, ptr %2, align 8
  call void @_ZNSt6vectorIN6duckdb20ListSegmentFunctionsESaIS1_EEC2Ev(ptr noundef nonnull align 8 dereferenceable(24) %3) #3
  ret void
}

; Function Attrs: inlinehint mustprogress nounwind uwtable
define linkonce_odr void @_ZN6duckdb20ListSegmentFunctionsC2Ev(ptr noundef nonnull align 8 dereferenceable(56) %0) unnamed_addr #8 comdat align 2 {
  %2 = alloca ptr, align 8
  store ptr %0, ptr %2, align 8, !tbaa !104
  %3 = load ptr, ptr %2, align 8
  %4 = getelementptr inbounds nuw %"struct.duckdb::ListSegmentFunctions", ptr %3, i32 0, i32 3
  store i16 4, ptr %4, align 8, !tbaa !106
  %5 = getelementptr inbounds nuw %"struct.duckdb::ListSegmentFunctions", ptr %3, i32 0, i32 4
  call void @_ZN6duckdb6vectorINS_20ListSegmentFunctionsELb1EEC2Ev(ptr noundef nonnull align 8 dereferenceable(24) %5) #3
  ret void
}

; Function Attrs: inlinehint mustprogress nounwind uwtable
define linkonce_odr void @_ZN6duckdb12FunctionDataC2Ev(ptr noundef nonnull align 8 dereferenceable(8) %0) unnamed_addr #8 comdat align 2 {
  %2 = alloca ptr, align 8
  store ptr %0, ptr %2, align 8, !tbaa !102
  %3 = load ptr, ptr %2, align 8
  store ptr getelementptr inbounds inrange(-16, 32) ({ [6 x ptr] }, ptr @_ZTVN6duckdb12FunctionDataE, i32 0, i32 0, i32 2), ptr %3, align 8, !tbaa !31
  ret void
}

; Function Attrs: mustprogress uwtable
define void @_ZN6duckdb12ListBindDataC2ERKNS_11LogicalTypeE(ptr noundef nonnull align 8 dereferenceable(88) %0, ptr noundef nonnull align 8 dereferenceable(24) %1) unnamed_addr #4 align 2 personality ptr @__gxx_personality_v0 {
  %3 = alloca ptr, align 8
  %4 = alloca ptr, align 8
  %5 = alloca ptr, align 8
  %6 = alloca i32, align 4
  %7 = alloca %"struct.duckdb::LogicalType", align 8
  store ptr %0, ptr %3, align 8, !tbaa !100
  store ptr %1, ptr %4, align 8, !tbaa !29
  %8 = load ptr, ptr %3, align 8
  call void @_ZN6duckdb12FunctionDataC2Ev(ptr noundef nonnull align 8 dereferenceable(8) %8) #3
  store ptr getelementptr inbounds inrange(-16, 32) ({ [6 x ptr] }, ptr @_ZTVN6duckdb12ListBindDataE, i32 0, i32 0, i32 2), ptr %8, align 8, !tbaa !31
  %9 = getelementptr inbounds nuw %"struct.duckdb::ListBindData", ptr %8, i32 0, i32 1
  %10 = load ptr, ptr %4, align 8, !tbaa !29
  invoke void @_ZN6duckdb11LogicalTypeC1ERKS0_(ptr noundef nonnull align 8 dereferenceable(24) %9, ptr noundef nonnull align 8 dereferenceable(24) %10)
          to label %11 unwind label %19

11:                                               ; preds = %2
  %12 = getelementptr inbounds nuw %"struct.duckdb::ListBindData", ptr %8, i32 0, i32 2
  call void @_ZN6duckdb20ListSegmentFunctionsC2Ev(ptr noundef nonnull align 8 dereferenceable(56) %12) #3
  call void @llvm.lifetime.start.p0(i64 24, ptr %7) #3
  %13 = load ptr, ptr %4, align 8, !tbaa !29
  %14 = invoke noundef nonnull align 8 dereferenceable(24) ptr @_ZN6duckdb8ListType12GetChildTypeERKNS_11LogicalTypeE(ptr noundef nonnull align 8 dereferenceable(24) %13)
          to label %15 unwind label %23

15:                                               ; preds = %11
  invoke void @_ZN6duckdb11LogicalTypeC1ERKS0_(ptr noundef nonnull align 8 dereferenceable(24) %7, ptr noundef nonnull align 8 dereferenceable(24) %14)
          to label %16 unwind label %23

16:                                               ; preds = %15
  %17 = getelementptr inbounds nuw %"struct.duckdb::ListBindData", ptr %8, i32 0, i32 2
  invoke void @_ZN6duckdb23GetSegmentDataFunctionsERNS_20ListSegmentFunctionsERKNS_11LogicalTypeE(ptr noundef nonnull align 8 dereferenceable(56) %17, ptr noundef nonnull align 8 dereferenceable(24) %7)
          to label %18 unwind label %27

18:                                               ; preds = %16
  call void @_ZN6duckdb11LogicalTypeD1Ev(ptr noundef nonnull align 8 dereferenceable(24) %7) #3
  call void @llvm.lifetime.end.p0(i64 24, ptr %7) #3
  ret void

19:                                               ; preds = %2
  %20 = landingpad { ptr, i32 }
          cleanup
  %21 = extractvalue { ptr, i32 } %20, 0
  store ptr %21, ptr %5, align 8
  %22 = extractvalue { ptr, i32 } %20, 1
  store i32 %22, ptr %6, align 4
  br label %32

23:                                               ; preds = %15, %11
  %24 = landingpad { ptr, i32 }
          cleanup
  %25 = extractvalue { ptr, i32 } %24, 0
  store ptr %25, ptr %5, align 8
  %26 = extractvalue { ptr, i32 } %24, 1
  store i32 %26, ptr %6, align 4
  br label %31

27:                                               ; preds = %16
  %28 = landingpad { ptr, i32 }
          cleanup
  %29 = extractvalue { ptr, i32 } %28, 0
  store ptr %29, ptr %5, align 8
  %30 = extractvalue { ptr, i32 } %28, 1
  store i32 %30, ptr %6, align 4
  call void @_ZN6duckdb11LogicalTypeD1Ev(ptr noundef nonnull align 8 dereferenceable(24) %7) #3
  br label %31

31:                                               ; preds = %27, %23
  call void @llvm.lifetime.end.p0(i64 24, ptr %7) #3
  call void @_ZN6duckdb20ListSegmentFunctionsD2Ev(ptr noundef nonnull align 8 dereferenceable(56) %12) #3
  call void @_ZN6duckdb11LogicalTypeD1Ev(ptr noundef nonnull align 8 dereferenceable(24) %9) #3
  br label %32

32:                                               ; preds = %31, %19
  call void @_ZN6duckdb12FunctionDataD2Ev(ptr noundef nonnull align 8 dereferenceable(8) %8) #3
  br label %33

33:                                               ; preds = %32
  %34 = load ptr, ptr %5, align 8
  %35 = load i32, ptr %6, align 4
  %36 = insertvalue { ptr, i32 } poison, ptr %34, 0
  %37 = insertvalue { ptr, i32 } %36, i32 %35, 1
  resume { ptr, i32 } %37
}