; Function Attrs: mustprogress uwtable
define void @_ZN6duckdb12ListBindDataC2ERKNS_11LogicalTypeE(ptr noundef nonnull align 8 dereferenceable(88) initializes((0, 8)) %0, ptr noundef nonnull align 8 dereferenceable(24) %1) unnamed_addr #3 align 2 personality ptr @__gxx_personality_v0 {
  %3 = alloca %"struct.duckdb::LogicalType", align 8
  store ptr getelementptr inbounds nuw inrange(-16, 32) (i8, ptr @_ZTVN6duckdb12ListBindDataE, i64 16), ptr %0, align 8, !tbaa !34
  %4 = getelementptr inbounds nuw i8, ptr %0, i64 8
  invoke void @_ZN6duckdb11LogicalTypeC1ERKS0_(ptr noundef nonnull align 8 dereferenceable(24) %4, ptr noundef nonnull align 8 dereferenceable(24) %1)
          to label %5 unwind label %13

5:                                                ; preds = %2
  %6 = getelementptr inbounds nuw i8, ptr %0, i64 32
  %7 = getelementptr inbounds nuw i8, ptr %0, i64 56
  store i16 4, ptr %7, align 8, !tbaa !99
  %8 = getelementptr inbounds nuw i8, ptr %0, i64 64
  tail call void @llvm.memset.p0.i64(ptr noundef nonnull align 8 dereferenceable(24) %8, i8 0, i64 24, i1 false)
  call void @llvm.lifetime.start.p0(i64 24, ptr nonnull %3) #25
  %9 = invoke noundef nonnull align 8 dereferenceable(24) ptr @_ZN6duckdb8ListType12GetChildTypeERKNS_11LogicalTypeE(ptr noundef nonnull align 8 dereferenceable(24) %1)
          to label %10 unwind label %15

10:                                               ; preds = %5
  invoke void @_ZN6duckdb11LogicalTypeC1ERKS0_(ptr noundef nonnull align 8 dereferenceable(24) %3, ptr noundef nonnull align 8 dereferenceable(24) %9)
          to label %11 unwind label %15

11:                                               ; preds = %10
  invoke void @_ZN6duckdb23GetSegmentDataFunctionsERNS_20ListSegmentFunctionsERKNS_11LogicalTypeE(ptr noundef nonnull align 8 dereferenceable(56) %6, ptr noundef nonnull align 8 dereferenceable(24) %3)
          to label %12 unwind label %17

12:                                               ; preds = %11
  call void @_ZN6duckdb11LogicalTypeD1Ev(ptr noundef nonnull align 8 dereferenceable(24) %3) #25
  call void @llvm.lifetime.end.p0(i64 24, ptr nonnull %3) #25
  ret void

13:                                               ; preds = %2
  %14 = landingpad { ptr, i32 }
          cleanup
  br label %20

15:                                               ; preds = %10, %5
  %16 = landingpad { ptr, i32 }
          cleanup
  br label %19

17:                                               ; preds = %11
  %18 = landingpad { ptr, i32 }
          cleanup
  call void @_ZN6duckdb11LogicalTypeD1Ev(ptr noundef nonnull align 8 dereferenceable(24) %3) #25
  br label %19

19:                                               ; preds = %17, %15
  %.pn = phi { ptr, i32 } [ %18, %17 ], [ %16, %15 ]
  call void @llvm.lifetime.end.p0(i64 24, ptr nonnull %3) #25
  call void @_ZN6duckdb20ListSegmentFunctionsD2Ev(ptr noundef nonnull align 8 dereferenceable(56) %6) #25
  call void @_ZN6duckdb11LogicalTypeD1Ev(ptr noundef nonnull align 8 dereferenceable(24) %4) #25
  br label %20

20:                                               ; preds = %19, %13
  %.pn.pn = phi { ptr, i32 } [ %.pn, %19 ], [ %14, %13 ]
  call void @_ZN6duckdb12FunctionDataD2Ev(ptr noundef nonnull align 8 dereferenceable(8) %0) #25
  resume { ptr, i32 } %.pn.pn
}